target datalayout = "e-m:e-p270:32:32-p271:32:32-p272:64:64-i64:64-i128:128-f80:128-n8:16:32:64-S128"
target triple = "x86_64-pc-linux-gnu"

%struct.evthread_lock_callbacks = type { i32, i32, ptr, ptr, ptr, ptr }
%struct.evbuffer_chain = type { ptr, i64, i64, i64, i32, i32, ptr }
%struct.evbuffer_chain_reference = type { ptr, ptr }
%struct.evbuffer_chain_file_segment = type { ptr }
%struct.evbuffer_multicast_parent = type { ptr, ptr }
%struct.evbuffer = type { ptr, ptr, ptr, i64, i64, i64, i64, ptr, i8, i32, ptr, i32, %struct.event_callback, %struct.evbuffer_cb_queue, ptr }
%struct.event_callback = type { %struct.anon, i16, i8, i8, %union.anon, ptr }
%struct.anon = type { ptr, ptr }
%union.anon = type { ptr }
%struct.evbuffer_cb_queue = type { ptr }

@evthread_lock_fns_ = external global %struct.evthread_lock_callbacks, align 8

; Function Attrs: inlinehint nounwind uwtable
define internal void @evbuffer_chain_free(ptr noundef %0) #1 {
  %2 = alloca ptr, align 8
  %3 = alloca ptr, align 8
  %4 = alloca ptr, align 8
  %5 = alloca ptr, align 8
  store ptr %0, ptr %2, align 8
  br label %6

6:                                                ; preds = %1
  br label %7

7:                                                ; preds = %6
  %8 = load ptr, ptr %2, align 8
  %9 = getelementptr inbounds nuw %struct.evbuffer_chain, ptr %8, i32 0, i32 5
  %10 = load i32, ptr %9, align 4
  %11 = add nsw i32 %10, -1
  store i32 %11, ptr %9, align 4
  %12 = icmp sgt i32 %11, 0
  br i1 %12, label %13, label %14

13:                                               ; preds = %7
  br label %118

14:                                               ; preds = %7
  %15 = load ptr, ptr %2, align 8
  %16 = getelementptr inbounds nuw %struct.evbuffer_chain, ptr %15, i32 0, i32 4
  %17 = load i32, ptr %16, align 8
  %18 = and i32 %17, 48
  %19 = icmp ne i32 %18, 0
  br i1 %19, label %20, label %29

20:                                               ; preds = %14
  %21 = load ptr, ptr %2, align 8
  %22 = getelementptr inbounds nuw %struct.evbuffer_chain, ptr %21, i32 0, i32 5
  %23 = load i32, ptr %22, align 4
  %24 = add nsw i32 %23, 1
  store i32 %24, ptr %22, align 4
  %25 = load ptr, ptr %2, align 8
  %26 = getelementptr inbounds nuw %struct.evbuffer_chain, ptr %25, i32 0, i32 4
  %27 = load i32, ptr %26, align 8
  %28 = or i32 %27, 64
  store i32 %28, ptr %26, align 8
  br label %118

29:                                               ; preds = %14
  %30 = load ptr, ptr %2, align 8
  %31 = getelementptr inbounds nuw %struct.evbuffer_chain, ptr %30, i32 0, i32 4
  %32 = load i32, ptr %31, align 8
  %33 = and i32 %32, 4
  %34 = icmp ne i32 %33, 0
  br i1 %34, label %35, label %56

35:                                               ; preds = %29
  call void @llvm.lifetime.start.p0(i64 8, ptr %3) #10
  %36 = load ptr, ptr %2, align 8
  %37 = getelementptr inbounds %struct.evbuffer_chain, ptr %36, i64 1
  store ptr %37, ptr %3, align 8
  %38 = load ptr, ptr %3, align 8
  %39 = getelementptr inbounds nuw %struct.evbuffer_chain_reference, ptr %38, i32 0, i32 0
  %40 = load ptr, ptr %39, align 8
  %41 = icmp ne ptr %40, null
  br i1 %41, label %42, label %55

42:                                               ; preds = %35
  %43 = load ptr, ptr %3, align 8
  %44 = getelementptr inbounds nuw %struct.evbuffer_chain_reference, ptr %43, i32 0, i32 0
  %45 = load ptr, ptr %44, align 8
  %46 = load ptr, ptr %2, align 8
  %47 = getelementptr inbounds nuw %struct.evbuffer_chain, ptr %46, i32 0, i32 6
  %48 = load ptr, ptr %47, align 8
  %49 = load ptr, ptr %2, align 8
  %50 = getelementptr inbounds nuw %struct.evbuffer_chain, ptr %49, i32 0, i32 1
  %51 = load i64, ptr %50, align 8
  %52 = load ptr, ptr %3, align 8
  %53 = getelementptr inbounds nuw %struct.evbuffer_chain_reference, ptr %52, i32 0, i32 1
  %54 = load ptr, ptr %53, align 8
  call void %45(ptr noundef %48, i64 noundef %51, ptr noundef %54)
  br label %55

55:                                               ; preds = %42, %35
  call void @llvm.lifetime.end.p0(i64 8, ptr %3) #10
  br label %56

56:                                               ; preds = %55, %29
  %57 = load ptr, ptr %2, align 8
  %58 = getelementptr inbounds nuw %struct.evbuffer_chain, ptr %57, i32 0, i32 4
  %59 = load i32, ptr %58, align 8
  %60 = and i32 %59, 1
  %61 = icmp ne i32 %60, 0
  br i1 %61, label %62, label %74

62:                                               ; preds = %56
  call void @llvm.lifetime.start.p0(i64 8, ptr %4) #10
  %63 = load ptr, ptr %2, align 8
  %64 = getelementptr inbounds %struct.evbuffer_chain, ptr %63, i64 1
  store ptr %64, ptr %4, align 8
  %65 = load ptr, ptr %4, align 8
  %66 = getelementptr inbounds nuw %struct.evbuffer_chain_file_segment, ptr %65, i32 0, i32 0
  %67 = load ptr, ptr %66, align 8
  %68 = icmp ne ptr %67, null
  br i1 %68, label %69, label %73

69:                                               ; preds = %62
  %70 = load ptr, ptr %4, align 8
  %71 = getelementptr inbounds nuw %struct.evbuffer_chain_file_segment, ptr %70, i32 0, i32 0
  %72 = load ptr, ptr %71, align 8
  call void @evbuffer_file_segment_free(ptr noundef %72)
  br label %73

73:                                               ; preds = %69, %62
  call void @llvm.lifetime.end.p0(i64 8, ptr %4) #10
  br label %74

74:                                               ; preds = %73, %56
  %75 = load ptr, ptr %2, align 8
  %76 = getelementptr inbounds nuw %struct.evbuffer_chain, ptr %75, i32 0, i32 4
  %77 = load i32, ptr %76, align 8
  %78 = and i32 %77, 128
  %79 = icmp ne i32 %78, 0
  br i1 %79, label %80, label %116

80:                                               ; preds = %74
  call void @llvm.lifetime.start.p0(i64 8, ptr %5) #10
  %81 = load ptr, ptr %2, align 8
  %82 = getelementptr inbounds %struct.evbuffer_chain, ptr %81, i64 1
  store ptr %82, ptr %5, align 8
  br label %83

83:                                               ; preds = %80
  br label %84

84:                                               ; preds = %83
  br label %85

85:                                               ; preds = %84
  br label %86

86:                                               ; preds = %85
  br label %87

87:                                               ; preds = %86
  br label %88

88:                                               ; preds = %87
  br label %89

89:                                               ; preds = %88
  br label %90

90:                                               ; preds = %89
  %91 = load ptr, ptr %5, align 8
  %92 = getelementptr inbounds nuw %struct.evbuffer_multicast_parent, ptr %91, i32 0, i32 0
  %93 = load ptr, ptr %92, align 8
  %94 = getelementptr inbounds nuw %struct.evbuffer, ptr %93, i32 0, i32 7
  %95 = load ptr, ptr %94, align 8
  %96 = icmp ne ptr %95, null
  br i1 %96, label %97, label %105

97:                                               ; preds = %90
  %98 = load ptr, ptr getelementptr inbounds nuw (%struct.evthread_lock_callbacks, ptr @evthread_lock_fns_, i32 0, i32 4), align 8
  %99 = load ptr, ptr %5, align 8
  %100 = getelementptr inbounds nuw %struct.evbuffer_multicast_parent, ptr %99, i32 0, i32 0
  %101 = load ptr, ptr %100, align 8
  %102 = getelementptr inbounds nuw %struct.evbuffer, ptr %101, i32 0, i32 7
  %103 = load ptr, ptr %102, align 8
  %104 = call i32 %98(i32 noundef 0, ptr noundef %103)
  br label %105

105:                                              ; preds = %97, %90
  br label %106

106:                                              ; preds = %105
  br label %107

107:                                              ; preds = %106
  br label %108

108:                                              ; preds = %107
  br label %109

109:                                              ; preds = %108
  %110 = load ptr, ptr %5, align 8
  %111 = getelementptr inbounds nuw %struct.evbuffer_multicast_parent, ptr %110, i32 0, i32 1
  %112 = load ptr, ptr %111, align 8
  call void @evbuffer_chain_free(ptr noundef %112)
  %113 = load ptr, ptr %5, align 8
  %114 = getelementptr inbounds nuw %struct.evbuffer_multicast_parent, ptr %113, i32 0, i32 0
  %115 = load ptr, ptr %114, align 8
  call void @evbuffer_decref_and_unlock_(ptr noundef %115)
  call void @llvm.lifetime.end.p0(i64 8, ptr %5) #10
  br label %116

116:                                              ; preds = %109, %74
  %117 = load ptr, ptr %2, align 8
  call void @event_mm_free_(ptr noundef %117)
  br label %118

118:                                              ; preds = %116, %20, %13
  ret void
}