; Function Attrs: inlinehint nounwind uwtable
define internal fastcc void @evbuffer_chain_free(ptr noundef %0) unnamed_addr #2 {
  %2 = getelementptr inbounds nuw i8, ptr %0, i64 36
  %3 = load i32, ptr %2, align 4
  %4 = add nsw i32 %3, -1
  store i32 %4, ptr %2, align 4
  %5 = icmp sgt i32 %3, 1
  br i1 %5, label %47, label %6

6:                                                ; preds = %1
  %7 = getelementptr inbounds nuw i8, ptr %0, i64 32
  %8 = load i32, ptr %7, align 8
  %9 = and i32 %8, 48
  %.not = icmp eq i32 %9, 0
  br i1 %.not, label %12, label %10

10:                                               ; preds = %6
  store i32 %3, ptr %2, align 4
  %11 = or i32 %8, 64
  store i32 %11, ptr %7, align 8
  br label %47

12:                                               ; preds = %6
  %13 = and i32 %8, 4
  %.not24 = icmp eq i32 %13, 0
  br i1 %.not24, label %24, label %14

14:                                               ; preds = %12
  %15 = getelementptr inbounds nuw i8, ptr %0, i64 48
  %16 = load ptr, ptr %15, align 8
  %.not25 = icmp eq ptr %16, null
  br i1 %.not25, label %24, label %17

17:                                               ; preds = %14
  %18 = getelementptr inbounds nuw i8, ptr %0, i64 40
  %19 = load ptr, ptr %18, align 8
  %20 = getelementptr inbounds nuw i8, ptr %0, i64 8
  %21 = load i64, ptr %20, align 8
  %22 = getelementptr inbounds nuw i8, ptr %0, i64 56
  %23 = load ptr, ptr %22, align 8
  tail call void %16(ptr noundef %19, i64 noundef %21, ptr noundef %23) #16
  %.pre = load i32, ptr %7, align 8
  br label %24

24:                                               ; preds = %14, %17, %12
  %25 = phi i32 [ %8, %14 ], [ %.pre, %17 ], [ %8, %12 ]
  %26 = and i32 %25, 1
  %.not26 = icmp eq i32 %26, 0
  br i1 %.not26, label %31, label %27

27:                                               ; preds = %24
  %28 = getelementptr inbounds nuw i8, ptr %0, i64 48
  %29 = load ptr, ptr %28, align 8
  %.not27 = icmp eq ptr %29, null
  br i1 %.not27, label %31, label %30

30:                                               ; preds = %27
  tail call void @evbuffer_file_segment_free(ptr noundef nonnull %29)
  %.pre30 = load i32, ptr %7, align 8
  br label %31

31:                                               ; preds = %27, %30, %24
  %32 = phi i32 [ %25, %27 ], [ %.pre30, %30 ], [ %25, %24 ]
  %33 = and i32 %32, 128
  %.not28 = icmp eq i32 %33, 0
  br i1 %.not28, label %46, label %34

34:                                               ; preds = %31
  %35 = getelementptr inbounds nuw i8, ptr %0, i64 48
  %36 = load ptr, ptr %35, align 8
  %37 = getelementptr inbounds nuw i8, ptr %36, i64 56
  %38 = load ptr, ptr %37, align 8
  %.not29 = icmp eq ptr %38, null
  br i1 %.not29, label %42, label %39

39:                                               ; preds = %34
  %40 = load ptr, ptr getelementptr inbounds nuw (i8, ptr @evthread_lock_fns_, i64 24), align 8
  %41 = tail call i32 %40(i32 noundef 0, ptr noundef nonnull %38) #16
  br label %42

42:                                               ; preds = %39, %34
  %43 = getelementptr inbounds nuw i8, ptr %0, i64 56
  %44 = load ptr, ptr %43, align 8
  tail call fastcc void @evbuffer_chain_free(ptr noundef %44)
  %45 = load ptr, ptr %35, align 8
  tail call void @evbuffer_decref_and_unlock_(ptr noundef %45)
  br label %46

46:                                               ; preds = %42, %31
  tail call void @event_mm_free_(ptr noundef nonnull %0) #16
  br label %47

47:                                               ; preds = %1, %46, %10
  ret void
}